target datalayout = "e-m:e-p270:32:32-p271:32:32-p272:64:64-i64:64-i128:128-f80:128-n8:16:32:64-S128"
target triple = "x86_64-pc-linux-gnu"

%struct.key2any_ctx_st = type { ptr, i32, i32, ptr, %struct.ossl_passphrase_data_st }
%struct.ossl_passphrase_data_st = type { i32, %union.anon, i8, ptr, i64 }
%union.anon = type { %struct.anon }
%struct.anon = type { ptr, i64 }

@.str = private unnamed_addr constant [68 x i8] c"../openssl/providers/implementations/encode_decode/encode_key2any.c\00", align 1
@__func__.p8info_to_encp8 = private unnamed_addr constant [16 x i8] c"p8info_to_encp8\00", align 1

; Function Attrs: nounwind uwtable
define internal ptr @p8info_to_encp8(ptr noundef %0, ptr noundef %1) #0 {
  %3 = alloca ptr, align 8
  %4 = alloca ptr, align 8
  %5 = alloca ptr, align 8
  %6 = alloca ptr, align 8
  %7 = alloca [1024 x i8], align 16
  %8 = alloca i64, align 8
  %9 = alloca ptr, align 8
  %10 = alloca i32, align 4
  store ptr %0, ptr %4, align 8, !tbaa !52
  store ptr %1, ptr %5, align 8, !tbaa !7
  call void @llvm.lifetime.start.p0(i64 8, ptr %6) #4
  store ptr null, ptr %6, align 8, !tbaa !50
  call void @llvm.lifetime.start.p0(i64 1024, ptr %7) #4
  call void @llvm.lifetime.start.p0(i64 8, ptr %8) #4
  store i64 0, ptr %8, align 8, !tbaa !28
  call void @llvm.lifetime.start.p0(i64 8, ptr %9) #4
  %11 = load ptr, ptr %5, align 8, !tbaa !7
  %12 = getelementptr inbounds nuw %struct.key2any_ctx_st, ptr %11, i32 0, i32 0
  %13 = load ptr, ptr %12, align 8, !tbaa !9
  %14 = call ptr @ossl_prov_ctx_get0_libctx(ptr noundef %13)
  store ptr %14, ptr %9, align 8, !tbaa !21
  %15 = load ptr, ptr %5, align 8, !tbaa !7
  %16 = getelementptr inbounds nuw %struct.key2any_ctx_st, ptr %15, i32 0, i32 3
  %17 = load ptr, ptr %16, align 8, !tbaa !18
  %18 = icmp eq ptr %17, null
  br i1 %18, label %19, label %20

19:                                               ; preds = %2
  store ptr null, ptr %3, align 8
  store i32 1, ptr %10, align 4
  br label %40

20:                                               ; preds = %2
  %21 = getelementptr inbounds [1024 x i8], ptr %7, i64 0, i64 0
  %22 = load ptr, ptr %5, align 8, !tbaa !7
  %23 = getelementptr inbounds nuw %struct.key2any_ctx_st, ptr %22, i32 0, i32 4
  %24 = call i32 @ossl_pw_get_passphrase(ptr noundef %21, i64 noundef 1024, ptr noundef %8, ptr noundef null, i32 noundef 1, ptr noundef %23)
  %25 = icmp ne i32 %24, 0
  br i1 %25, label %27, label %26

26:                                               ; preds = %20
  call void @ERR_new()
  call void @ERR_set_debug(ptr noundef @.str, i32 noundef 122, ptr noundef @__func__.p8info_to_encp8)
  call void (i32, i32, ptr, ...) @ERR_set_error(i32 noundef 57, i32 noundef 159, ptr noundef null)
  store ptr null, ptr %3, align 8
  store i32 1, ptr %10, align 4
  br label %40

27:                                               ; preds = %20
  %28 = load ptr, ptr %5, align 8, !tbaa !7
  %29 = getelementptr inbounds nuw %struct.key2any_ctx_st, ptr %28, i32 0, i32 3
  %30 = load ptr, ptr %29, align 8, !tbaa !18
  %31 = getelementptr inbounds [1024 x i8], ptr %7, i64 0, i64 0
  %32 = load i64, ptr %8, align 8, !tbaa !28
  %33 = trunc i64 %32 to i32
  %34 = load ptr, ptr %4, align 8, !tbaa !52
  %35 = load ptr, ptr %9, align 8, !tbaa !21
  %36 = call ptr @PKCS8_encrypt_ex(i32 noundef -1, ptr noundef %30, ptr noundef %31, i32 noundef %33, ptr noundef null, i32 noundef 0, i32 noundef 0, ptr noundef %34, ptr noundef %35, ptr noundef null)
  store ptr %36, ptr %6, align 8, !tbaa !50
  %37 = getelementptr inbounds [1024 x i8], ptr %7, i64 0, i64 0
  %38 = load i64, ptr %8, align 8, !tbaa !28
  call void @OPENSSL_cleanse(ptr noundef %37, i64 noundef %38)
  %39 = load ptr, ptr %6, align 8, !tbaa !50
  store ptr %39, ptr %3, align 8
  store i32 1, ptr %10, align 4
  br label %40

40:                                               ; preds = %27, %26, %19
  call void @llvm.lifetime.end.p0(i64 8, ptr %9) #4
  call void @llvm.lifetime.end.p0(i64 8, ptr %8) #4
  call void @llvm.lifetime.end.p0(i64 1024, ptr %7) #4
  call void @llvm.lifetime.end.p0(i64 8, ptr %6) #4
  %41 = load ptr, ptr %3, align 8
  ret ptr %41
}

; Function Attrs: nounwind uwtable
define internal void @free_asn1_data(i32 noundef %0, ptr noundef %1) #0 {
  %3 = alloca i32, align 4
  %4 = alloca ptr, align 8
  store i32 %0, ptr %3, align 4, !tbaa !25
  store ptr %1, ptr %4, align 8, !tbaa !3
  %5 = load i32, ptr %3, align 4, !tbaa !25
  switch i32 %5, label %10 [
    i32 6, label %6
    i32 16, label %8
  ]

6:                                                ; preds = %2
  %7 = load ptr, ptr %4, align 8, !tbaa !3
  call void @ASN1_OBJECT_free(ptr noundef %7)
  br label %10

8:                                                ; preds = %2
  %9 = load ptr, ptr %4, align 8, !tbaa !3
  call void @ASN1_STRING_free(ptr noundef %9)
  br label %10

10:                                               ; preds = %2, %8, %6
  ret void
}

; Function Attrs: nounwind uwtable
define internal ptr @key_to_encp8(ptr noundef %0, i32 noundef %1, ptr noundef %2, i32 noundef %3, ptr noundef %4, ptr noundef %5) #0 {
  %7 = alloca ptr, align 8
  %8 = alloca i32, align 4
  %9 = alloca ptr, align 8
  %10 = alloca i32, align 4
  %11 = alloca ptr, align 8
  %12 = alloca ptr, align 8
  %13 = alloca ptr, align 8
  %14 = alloca ptr, align 8
  store ptr %0, ptr %7, align 8, !tbaa !3
  store i32 %1, ptr %8, align 4, !tbaa !25
  store ptr %2, ptr %9, align 8, !tbaa !3
  store i32 %3, ptr %10, align 4, !tbaa !25
  store ptr %4, ptr %11, align 8, !tbaa !3
  store ptr %5, ptr %12, align 8, !tbaa !7
  call void @llvm.lifetime.start.p0(i64 8, ptr %13) #4
  %15 = load ptr, ptr %7, align 8, !tbaa !3
  %16 = load i32, ptr %8, align 4, !tbaa !25
  %17 = load ptr, ptr %9, align 8, !tbaa !3
  %18 = load i32, ptr %10, align 4, !tbaa !25
  %19 = load ptr, ptr %11, align 8, !tbaa !3
  %20 = load ptr, ptr %12, align 8, !tbaa !7
  %21 = call ptr @key_to_p8info(ptr noundef %15, i32 noundef %16, ptr noundef %17, i32 noundef %18, ptr noundef %19, ptr noundef %20)
  store ptr %21, ptr %13, align 8, !tbaa !52
  call void @llvm.lifetime.start.p0(i64 8, ptr %14) #4
  store ptr null, ptr %14, align 8, !tbaa !50
  %22 = load ptr, ptr %13, align 8, !tbaa !52
  %23 = icmp eq ptr %22, null
  br i1 %23, label %24, label %27

24:                                               ; preds = %6
  %25 = load i32, ptr %10, align 4, !tbaa !25
  %26 = load ptr, ptr %9, align 8, !tbaa !3
  call void @free_asn1_data(i32 noundef %25, ptr noundef %26)
  br label %32

27:                                               ; preds = %6
  %28 = load ptr, ptr %13, align 8, !tbaa !52
  %29 = load ptr, ptr %12, align 8, !tbaa !7
  %30 = call ptr @p8info_to_encp8(ptr noundef %28, ptr noundef %29)
  store ptr %30, ptr %14, align 8, !tbaa !50
  %31 = load ptr, ptr %13, align 8, !tbaa !52
  call void @PKCS8_PRIV_KEY_INFO_free(ptr noundef %31)
  br label %32

32:                                               ; preds = %27, %24
  %33 = load ptr, ptr %14, align 8, !tbaa !50
  call void @llvm.lifetime.end.p0(i64 8, ptr %14) #4
  call void @llvm.lifetime.end.p0(i64 8, ptr %13) #4
  ret ptr %33
}