; Function Attrs: nounwind uwtable
define internal fastcc ptr @key_to_encp8(ptr noundef %0, i32 noundef %1, ptr noundef %2, i32 noundef %3, ptr noundef readonly captures(none) %4, ptr noundef %5) unnamed_addr #0 {
  %7 = alloca [1024 x i8], align 16
  %8 = alloca i64, align 8
  %9 = tail call fastcc ptr @key_to_p8info(ptr noundef %0, i32 noundef %1, ptr noundef %2, i32 noundef %3, ptr noundef %4, ptr noundef %5)
  %10 = icmp eq ptr %9, null
  br i1 %10, label %11, label %14

11:                                               ; preds = %6
  switch i32 %3, label %free_asn1_data.exit [
    i32 6, label %12
    i32 16, label %13
  ]

12:                                               ; preds = %11
  tail call void @ASN1_OBJECT_free(ptr noundef %2) #5
  br label %free_asn1_data.exit

13:                                               ; preds = %11
  tail call void @ASN1_STRING_free(ptr noundef %2) #5
  br label %free_asn1_data.exit

14:                                               ; preds = %6
  call void @llvm.lifetime.start.p0(i64 1024, ptr nonnull %7) #5
  call void @llvm.lifetime.start.p0(i64 8, ptr nonnull %8) #5
  store i64 0, ptr %8, align 8, !tbaa !23
  %15 = load ptr, ptr %5, align 8, !tbaa !3
  %16 = tail call ptr @ossl_prov_ctx_get0_libctx(ptr noundef %15) #5
  %17 = getelementptr inbounds nuw i8, ptr %5, i64 16
  %18 = load ptr, ptr %17, align 8, !tbaa !15
  %19 = icmp eq ptr %18, null
  br i1 %19, label %p8info_to_encp8.exit, label %20

20:                                               ; preds = %14
  %21 = getelementptr inbounds nuw i8, ptr %5, i64 24
  %22 = call i32 @ossl_pw_get_passphrase(ptr noundef nonnull %7, i64 noundef 1024, ptr noundef nonnull %8, ptr noundef null, i32 noundef 1, ptr noundef nonnull %21) #5
  %.not.i = icmp eq i32 %22, 0
  br i1 %.not.i, label %23, label %24

23:                                               ; preds = %20
  call void @ERR_new() #5
  call void @ERR_set_debug(ptr noundef nonnull @.str, i32 noundef 122, ptr noundef nonnull @__func__.p8info_to_encp8) #5
  call void (i32, i32, ptr, ...) @ERR_set_error(i32 noundef 57, i32 noundef 159, ptr noundef null) #5
  br label %p8info_to_encp8.exit

24:                                               ; preds = %20
  %25 = load ptr, ptr %17, align 8, !tbaa !15
  %26 = load i64, ptr %8, align 8, !tbaa !23
  %27 = trunc i64 %26 to i32
  %28 = call ptr @PKCS8_encrypt_ex(i32 noundef -1, ptr noundef %25, ptr noundef nonnull %7, i32 noundef %27, ptr noundef null, i32 noundef 0, i32 noundef 0, ptr noundef nonnull %9, ptr noundef %16, ptr noundef null) #5
  %29 = load i64, ptr %8, align 8, !tbaa !23
  call void @OPENSSL_cleanse(ptr noundef nonnull %7, i64 noundef %29) #5
  br label %p8info_to_encp8.exit

p8info_to_encp8.exit:                             ; preds = %14, %23, %24
  %.0.i = phi ptr [ %28, %24 ], [ null, %23 ], [ null, %14 ]
  call void @llvm.lifetime.end.p0(i64 8, ptr nonnull %8) #5
  call void @llvm.lifetime.end.p0(i64 1024, ptr nonnull %7) #5
  call void @PKCS8_PRIV_KEY_INFO_free(ptr noundef nonnull %9) #5
  br label %free_asn1_data.exit

free_asn1_data.exit:                              ; preds = %13, %12, %11, %p8info_to_encp8.exit
  %.0 = phi ptr [ %.0.i, %p8info_to_encp8.exit ], [ null, %11 ], [ null, %12 ], [ null, %13 ]
  ret ptr %.0
}